target datalayout = "e-m:e-p270:32:32-p271:32:32-p272:64:64-i64:64-i128:128-f80:128-n8:16:32:64-S128"
target triple = "x86_64-pc-linux-gnu"

%struct.re_pattern_buffer = type { ptr, ptr, ptr, i32, i32, ptr, ptr, i32, i32, i32, i32, i32, i32, i32, i32, i32, ptr, ptr, i32, ptr, i32, ptr, i32, i32, i32, i32, i32, i32, ptr, ptr, [256 x i8], i32, i32, i32, ptr }
%struct.OnigSyntaxType = type { i32, i32, i32, i32, %struct.OnigMetaCharTableType }
%struct.OnigMetaCharTableType = type { i32, i32, i32, i32, i32, i32 }

@OnigDefaultCaseFoldFlag = dso_local global i32 1073741824, align 4
@onig_inited = internal global i32 0, align 4
@.str = private unnamed_addr constant [45 x i8] c"You didn't call onig_initialize() explicitly\00", align 1

; Function Attrs: nounwind uwtable
define dso_local i32 @onig_initialize(ptr noundef %0, i32 noundef %1) #0 {
  %3 = alloca i32, align 4
  %4 = alloca ptr, align 8
  %5 = alloca i32, align 4
  %6 = alloca i32, align 4
  %7 = alloca i32, align 4
  %8 = alloca i32, align 4
  %9 = alloca ptr, align 8
  store ptr %0, ptr %4, align 8, !tbaa !119
  store i32 %1, ptr %5, align 4, !tbaa !4
  call void @llvm.lifetime.start.p0(i64 4, ptr %6) #9
  call void @llvm.lifetime.start.p0(i64 4, ptr %7) #9
  %10 = load i32, ptr @onig_inited, align 4, !tbaa !4
  %11 = icmp ne i32 %10, 0
  br i1 %11, label %12, label %13

12:                                               ; preds = %2
  store i32 0, ptr %3, align 4
  store i32 1, ptr %8, align 4
  br label %39

13:                                               ; preds = %2
  %14 = call i32 @onigenc_init()
  store i32 1, ptr @onig_inited, align 4, !tbaa !4
  store i32 0, ptr %6, align 4, !tbaa !4
  br label %15

15:                                               ; preds = %35, %13
  %16 = load i32, ptr %6, align 4, !tbaa !4
  %17 = load i32, ptr %5, align 4, !tbaa !4
  %18 = icmp slt i32 %16, %17
  br i1 %18, label %19, label %38

19:                                               ; preds = %15
  call void @llvm.lifetime.start.p0(i64 8, ptr %9) #9
  %20 = load ptr, ptr %4, align 8, !tbaa !119
  %21 = load i32, ptr %6, align 4, !tbaa !4
  %22 = sext i32 %21 to i64
  %23 = getelementptr inbounds ptr, ptr %20, i64 %22
  %24 = load ptr, ptr %23, align 8, !tbaa !115
  store ptr %24, ptr %9, align 8, !tbaa !115
  %25 = load ptr, ptr %9, align 8, !tbaa !115
  %26 = call i32 @onig_initialize_encoding(ptr noundef %25)
  store i32 %26, ptr %7, align 4, !tbaa !4
  %27 = load i32, ptr %7, align 4, !tbaa !4
  %28 = icmp ne i32 %27, 0
  br i1 %28, label %29, label %31

29:                                               ; preds = %19
  %30 = load i32, ptr %7, align 4, !tbaa !4
  store i32 %30, ptr %3, align 4
  store i32 1, ptr %8, align 4
  br label %32

31:                                               ; preds = %19
  store i32 0, ptr %8, align 4
  br label %32

32:                                               ; preds = %31, %29
  call void @llvm.lifetime.end.p0(i64 8, ptr %9) #9
  %33 = load i32, ptr %8, align 4
  switch i32 %33, label %39 [
    i32 0, label %34
  ]

34:                                               ; preds = %32
  br label %35

35:                                               ; preds = %34
  %36 = load i32, ptr %6, align 4, !tbaa !4
  %37 = add nsw i32 %36, 1
  store i32 %37, ptr %6, align 4, !tbaa !4
  br label %15, !llvm.loop !121

38:                                               ; preds = %15
  store i32 0, ptr %3, align 4
  store i32 1, ptr %8, align 4
  br label %39

39:                                               ; preds = %38, %32, %12
  call void @llvm.lifetime.end.p0(i64 4, ptr %7) #9
  call void @llvm.lifetime.end.p0(i64 4, ptr %6) #9
  %40 = load i32, ptr %3, align 4
  ret i32 %40
}

; Function Attrs: nounwind uwtable
define dso_local i32 @onig_reg_init(ptr noundef %0, i32 noundef %1, i32 noundef %2, ptr noundef %3, ptr noundef %4) #0 {
  %6 = alloca i32, align 4
  %7 = alloca ptr, align 8
  %8 = alloca i32, align 4
  %9 = alloca i32, align 4
  %10 = alloca ptr, align 8
  %11 = alloca ptr, align 8
  %12 = alloca i32, align 4
  %13 = alloca i32, align 4
  store ptr %0, ptr %7, align 8, !tbaa !8
  store i32 %1, ptr %8, align 4, !tbaa !4
  store i32 %2, ptr %9, align 4, !tbaa !4
  store ptr %3, ptr %10, align 8, !tbaa !115
  store ptr %4, ptr %11, align 8, !tbaa !15
  call void @llvm.lifetime.start.p0(i64 4, ptr %12) #9
  %14 = load ptr, ptr %7, align 8, !tbaa !8
  call void @llvm.memset.p0.i64(ptr align 8 %14, i8 0, i64 456, i1 false)
  %15 = load i32, ptr @onig_inited, align 4, !tbaa !4
  %16 = icmp eq i32 %15, 0
  br i1 %16, label %17, label %23

17:                                               ; preds = %5
  %18 = call i32 @onig_initialize(ptr noundef %10, i32 noundef 1)
  store i32 %18, ptr %12, align 4, !tbaa !4
  %19 = load i32, ptr %12, align 4, !tbaa !4
  %20 = icmp ne i32 %19, 0
  br i1 %20, label %21, label %22

21:                                               ; preds = %17
  store i32 -23, ptr %6, align 4
  store i32 1, ptr %13, align 4
  br label %92

22:                                               ; preds = %17
  call void @onig_warning(ptr noundef @.str)
  br label %23

23:                                               ; preds = %22, %5
  %24 = load ptr, ptr %7, align 8, !tbaa !8
  %25 = icmp eq ptr %24, null
  br i1 %25, label %26, label %27

26:                                               ; preds = %23
  store i32 -30, ptr %6, align 4
  store i32 1, ptr %13, align 4
  br label %92

27:                                               ; preds = %23
  %28 = load ptr, ptr %10, align 8, !tbaa !115
  %29 = icmp eq ptr %28, null
  br i1 %29, label %30, label %31

30:                                               ; preds = %27
  store i32 -21, ptr %6, align 4
  store i32 1, ptr %13, align 4
  br label %92

31:                                               ; preds = %27
  %32 = load i32, ptr %8, align 4, !tbaa !4
  %33 = and i32 %32, 384
  %34 = icmp eq i32 %33, 384
  br i1 %34, label %35, label %36

35:                                               ; preds = %31
  store i32 -403, ptr %6, align 4
  store i32 1, ptr %13, align 4
  br label %92

36:                                               ; preds = %31
  %37 = load i32, ptr %8, align 4, !tbaa !4
  %38 = and i32 %37, 64
  %39 = icmp ne i32 %38, 0
  br i1 %39, label %40, label %48

40:                                               ; preds = %36
  %41 = load ptr, ptr %11, align 8, !tbaa !15
  %42 = getelementptr inbounds nuw %struct.OnigSyntaxType, ptr %41, i32 0, i32 3
  %43 = load i32, ptr %42, align 4, !tbaa !116
  %44 = load i32, ptr %8, align 4, !tbaa !4
  %45 = or i32 %44, %43
  store i32 %45, ptr %8, align 4, !tbaa !4
  %46 = load i32, ptr %8, align 4, !tbaa !4
  %47 = and i32 %46, -9
  store i32 %47, ptr %8, align 4, !tbaa !4
  br label %54

48:                                               ; preds = %36
  %49 = load ptr, ptr %11, align 8, !tbaa !15
  %50 = getelementptr inbounds nuw %struct.OnigSyntaxType, ptr %49, i32 0, i32 3
  %51 = load i32, ptr %50, align 4, !tbaa !116
  %52 = load i32, ptr %8, align 4, !tbaa !4
  %53 = or i32 %52, %51
  store i32 %53, ptr %8, align 4, !tbaa !4
  br label %54

54:                                               ; preds = %48, %40
  %55 = load i32, ptr %8, align 4, !tbaa !4
  %56 = and i32 %55, 32768
  %57 = icmp ne i32 %56, 0
  br i1 %57, label %58, label %63

58:                                               ; preds = %54
  %59 = load i32, ptr %9, align 4, !tbaa !4
  %60 = and i32 %59, -1074790401
  store i32 %60, ptr %9, align 4, !tbaa !4
  %61 = load i32, ptr %9, align 4, !tbaa !4
  %62 = or i32 %61, 1
  store i32 %62, ptr %9, align 4, !tbaa !4
  br label %63

63:                                               ; preds = %58, %54
  %64 = load ptr, ptr %10, align 8, !tbaa !115
  %65 = load ptr, ptr %7, align 8, !tbaa !8
  %66 = getelementptr inbounds nuw %struct.re_pattern_buffer, ptr %65, i32 0, i32 17
  store ptr %64, ptr %66, align 8, !tbaa !24
  %67 = load i32, ptr %8, align 4, !tbaa !4
  %68 = load ptr, ptr %7, align 8, !tbaa !8
  %69 = getelementptr inbounds nuw %struct.re_pattern_buffer, ptr %68, i32 0, i32 18
  store i32 %67, ptr %69, align 8, !tbaa !66
  %70 = load ptr, ptr %11, align 8, !tbaa !15
  %71 = load ptr, ptr %7, align 8, !tbaa !8
  %72 = getelementptr inbounds nuw %struct.re_pattern_buffer, ptr %71, i32 0, i32 19
  store ptr %70, ptr %72, align 8, !tbaa !117
  %73 = load ptr, ptr %7, align 8, !tbaa !8
  %74 = getelementptr inbounds nuw %struct.re_pattern_buffer, ptr %73, i32 0, i32 22
  store i32 0, ptr %74, align 8, !tbaa !71
  %75 = load ptr, ptr %7, align 8, !tbaa !8
  %76 = getelementptr inbounds nuw %struct.re_pattern_buffer, ptr %75, i32 0, i32 28
  store ptr null, ptr %76, align 8, !tbaa !27
  %77 = load ptr, ptr %7, align 8, !tbaa !8
  %78 = getelementptr inbounds nuw %struct.re_pattern_buffer, ptr %77, i32 0, i32 34
  store ptr null, ptr %78, align 8, !tbaa !11
  %79 = load ptr, ptr %7, align 8, !tbaa !8
  %80 = getelementptr inbounds nuw %struct.re_pattern_buffer, ptr %79, i32 0, i32 0
  store ptr null, ptr %80, align 8, !tbaa !29
  %81 = load ptr, ptr %7, align 8, !tbaa !8
  %82 = getelementptr inbounds nuw %struct.re_pattern_buffer, ptr %81, i32 0, i32 2
  store ptr null, ptr %82, align 8, !tbaa !35
  %83 = load ptr, ptr %7, align 8, !tbaa !8
  %84 = getelementptr inbounds nuw %struct.re_pattern_buffer, ptr %83, i32 0, i32 3
  store i32 0, ptr %84, align 8, !tbaa !30
  %85 = load ptr, ptr %7, align 8, !tbaa !8
  %86 = getelementptr inbounds nuw %struct.re_pattern_buffer, ptr %85, i32 0, i32 4
  store i32 0, ptr %86, align 4, !tbaa !36
  %87 = load ptr, ptr %7, align 8, !tbaa !8
  %88 = getelementptr inbounds nuw %struct.re_pattern_buffer, ptr %87, i32 0, i32 21
  store ptr null, ptr %88, align 8, !tbaa !118
  %89 = load i32, ptr %9, align 4, !tbaa !4
  %90 = load ptr, ptr %7, align 8, !tbaa !8
  %91 = getelementptr inbounds nuw %struct.re_pattern_buffer, ptr %90, i32 0, i32 20
  store i32 %89, ptr %91, align 8, !tbaa !82
  store i32 0, ptr %6, align 4
  store i32 1, ptr %13, align 4
  br label %92

92:                                               ; preds = %63, %35, %30, %26, %21
  call void @llvm.lifetime.end.p0(i64 4, ptr %12) #9
  %93 = load i32, ptr %6, align 4
  ret i32 %93
}

; Function Attrs: nounwind uwtable
define dso_local i32 @onig_new_without_alloc(ptr noundef %0, ptr noundef %1, ptr noundef %2, i32 noundef %3, ptr noundef %4, ptr noundef %5, ptr noundef %6) #0 {
  %8 = alloca i32, align 4
  %9 = alloca ptr, align 8
  %10 = alloca ptr, align 8
  %11 = alloca ptr, align 8
  %12 = alloca i32, align 4
  %13 = alloca ptr, align 8
  %14 = alloca ptr, align 8
  %15 = alloca ptr, align 8
  %16 = alloca i32, align 4
  %17 = alloca i32, align 4
  store ptr %0, ptr %9, align 8, !tbaa !8
  store ptr %1, ptr %10, align 8, !tbaa !23
  store ptr %2, ptr %11, align 8, !tbaa !23
  store i32 %3, ptr %12, align 4, !tbaa !4
  store ptr %4, ptr %13, align 8, !tbaa !115
  store ptr %5, ptr %14, align 8, !tbaa !15
  store ptr %6, ptr %15, align 8, !tbaa !15
  call void @llvm.lifetime.start.p0(i64 4, ptr %16) #9
  %18 = load ptr, ptr %9, align 8, !tbaa !8
  %19 = load i32, ptr %12, align 4, !tbaa !4
  %20 = load i32, ptr @OnigDefaultCaseFoldFlag, align 4, !tbaa !4
  %21 = load ptr, ptr %13, align 8, !tbaa !115
  %22 = load ptr, ptr %14, align 8, !tbaa !15
  %23 = call i32 @onig_reg_init(ptr noundef %18, i32 noundef %19, i32 noundef %20, ptr noundef %21, ptr noundef %22)
  store i32 %23, ptr %16, align 4, !tbaa !4
  %24 = load i32, ptr %16, align 4, !tbaa !4
  %25 = icmp ne i32 %24, 0
  br i1 %25, label %26, label %28

26:                                               ; preds = %7
  %27 = load i32, ptr %16, align 4, !tbaa !4
  store i32 %27, ptr %8, align 4
  store i32 1, ptr %17, align 4
  br label %35

28:                                               ; preds = %7
  %29 = load ptr, ptr %9, align 8, !tbaa !8
  %30 = load ptr, ptr %10, align 8, !tbaa !23
  %31 = load ptr, ptr %11, align 8, !tbaa !23
  %32 = load ptr, ptr %15, align 8, !tbaa !15
  %33 = call i32 @onig_compile(ptr noundef %29, ptr noundef %30, ptr noundef %31, ptr noundef %32)
  store i32 %33, ptr %16, align 4, !tbaa !4
  %34 = load i32, ptr %16, align 4, !tbaa !4
  store i32 %34, ptr %8, align 4
  store i32 1, ptr %17, align 4
  br label %35

35:                                               ; preds = %28, %26
  call void @llvm.lifetime.end.p0(i64 4, ptr %16) #9
  %36 = load i32, ptr %8, align 4
  ret i32 %36
}